target datalayout = "e-m:e-p270:32:32-p271:32:32-p272:64:64-i64:64-i128:128-f80:128-n8:16:32:64-S128"
target triple = "x86_64-pc-linux-gnu"

%"class.clang::ActionResult" = type { i64 }
%"class.clang::SourceLocation" = type { i32 }
%"class.clang::QualType" = type { %"class.llvm::PointerIntPair" }
%"class.llvm::PointerIntPair" = type { %"struct.llvm::detail::PunnedPointer" }
%"struct.llvm::detail::PunnedPointer" = type { [8 x i8] }
%"class.clang::SemaBase" = type { ptr }
%"class.clang::OpaquePtr" = type { ptr }

; Function Attrs: mustprogress nounwind uwtable
define dso_local i64 @_ZN5clang8SemaObjC25ParseObjCEncodeExpressionENS_14SourceLocationES1_S1_NS_9OpaquePtrINS_8QualTypeEEES1_(ptr noundef nonnull align 8 dereferenceable(328) %0, i32 %1, i32 %2, i32 %3, ptr %4, i32 %5) #0 align 2 {
  %7 = alloca %"class.clang::ActionResult", align 8
  %8 = alloca %"class.clang::SourceLocation", align 4
  %9 = alloca %"class.clang::SourceLocation", align 4
  %10 = alloca %"class.clang::SourceLocation", align 4
  %11 = alloca %"class.clang::OpaquePtr", align 8
  %12 = alloca %"class.clang::SourceLocation", align 4
  %13 = alloca ptr, align 8
  %14 = alloca ptr, align 8
  %15 = alloca ptr, align 8
  %16 = alloca %"class.clang::QualType", align 8
  %17 = alloca %"class.clang::OpaquePtr", align 8
  %18 = alloca %"class.clang::QualType", align 8
  %19 = alloca %"class.clang::SourceLocation", align 4
  %20 = alloca %"class.clang::SourceLocation", align 4
  %21 = alloca %"class.clang::SourceLocation", align 4
  %22 = alloca %"class.clang::SourceLocation", align 4
  %23 = getelementptr inbounds nuw %"class.clang::SourceLocation", ptr %8, i32 0, i32 0
  store i32 %1, ptr %23, align 4
  %24 = getelementptr inbounds nuw %"class.clang::SourceLocation", ptr %9, i32 0, i32 0
  store i32 %2, ptr %24, align 4
  %25 = getelementptr inbounds nuw %"class.clang::SourceLocation", ptr %10, i32 0, i32 0
  store i32 %3, ptr %25, align 4
  %26 = getelementptr inbounds nuw %"class.clang::OpaquePtr", ptr %11, i32 0, i32 0
  store ptr %4, ptr %26, align 8
  %27 = getelementptr inbounds nuw %"class.clang::SourceLocation", ptr %12, i32 0, i32 0
  store i32 %5, ptr %27, align 4
  store ptr %0, ptr %13, align 8
  %28 = load ptr, ptr %13, align 8
  %29 = call noundef nonnull align 8 dereferenceable(23096) ptr @_ZNK5clang8SemaBase13getASTContextEv(ptr noundef nonnull align 8 dereferenceable(8) %28)
  store ptr %29, ptr %14, align 8
  call void @llvm.memcpy.p0.p0.i64(ptr align 8 %17, ptr align 8 %11, i64 8, i1 false)
  %30 = getelementptr inbounds nuw %"class.clang::OpaquePtr", ptr %17, i32 0, i32 0
  %31 = load ptr, ptr %30, align 8
  %32 = call i64 @_ZN5clang4Sema17GetTypeFromParserENS_9OpaquePtrINS_8QualTypeEEEPPNS_14TypeSourceInfoE(ptr %31, ptr noundef %15)
  %33 = getelementptr inbounds nuw %"class.clang::QualType", ptr %16, i32 0, i32 0
  %34 = getelementptr inbounds nuw %"class.llvm::PointerIntPair", ptr %33, i32 0, i32 0
  %35 = getelementptr inbounds nuw %"struct.llvm::detail::PunnedPointer", ptr %34, i32 0, i32 0
  store i64 %32, ptr %35, align 8
  %36 = load ptr, ptr %15, align 8
  %37 = icmp ne ptr %36, null
  br i1 %37, label %53, label %38

38:                                               ; preds = %6
  %39 = load ptr, ptr %14, align 8
  call void @llvm.memcpy.p0.p0.i64(ptr align 8 %18, ptr align 8 %16, i64 8, i1 false)
  %40 = getelementptr inbounds nuw %"class.clang::SemaBase", ptr %28, i32 0, i32 0
  %41 = load ptr, ptr %40, align 8
  call void @llvm.memcpy.p0.p0.i64(ptr align 4 %20, ptr align 4 %10, i64 4, i1 false)
  %42 = getelementptr inbounds nuw %"class.clang::SourceLocation", ptr %20, i32 0, i32 0
  %43 = load i32, ptr %42, align 4
  %44 = call i32 @_ZN5clang4Sema19getLocForEndOfTokenENS_14SourceLocationEj(ptr noundef nonnull align 8 dereferenceable(17560) %41, i32 %43, i32 noundef 0)
  %45 = getelementptr inbounds nuw %"class.clang::SourceLocation", ptr %19, i32 0, i32 0
  store i32 %44, ptr %45, align 4
  %46 = getelementptr inbounds nuw %"class.clang::QualType", ptr %18, i32 0, i32 0
  %47 = getelementptr inbounds nuw %"class.llvm::PointerIntPair", ptr %46, i32 0, i32 0
  %48 = getelementptr inbounds nuw %"struct.llvm::detail::PunnedPointer", ptr %47, i32 0, i32 0
  %49 = load i64, ptr %48, align 8
  %50 = getelementptr inbounds nuw %"class.clang::SourceLocation", ptr %19, i32 0, i32 0
  %51 = load i32, ptr %50, align 4
  %52 = call noundef ptr @_ZNK5clang10ASTContext24getTrivialTypeSourceInfoENS_8QualTypeENS_14SourceLocationE(ptr noundef nonnull align 8 dereferenceable(23096) %39, i64 %49, i32 %51)
  store ptr %52, ptr %15, align 8
  br label %53

53:                                               ; preds = %38, %6
  call void @llvm.memcpy.p0.p0.i64(ptr align 4 %21, ptr align 4 %8, i64 4, i1 false)
  %54 = load ptr, ptr %15, align 8
  call void @llvm.memcpy.p0.p0.i64(ptr align 4 %22, ptr align 4 %12, i64 4, i1 false)
  %55 = getelementptr inbounds nuw %"class.clang::SourceLocation", ptr %21, i32 0, i32 0
  %56 = load i32, ptr %55, align 4
  %57 = getelementptr inbounds nuw %"class.clang::SourceLocation", ptr %22, i32 0, i32 0
  %58 = load i32, ptr %57, align 4
  %59 = call i64 @_ZN5clang8SemaObjC25BuildObjCEncodeExpressionENS_14SourceLocationEPNS_14TypeSourceInfoES1_(ptr noundef nonnull align 8 dereferenceable(328) %28, i32 %56, ptr noundef %54, i32 %58)
  %60 = getelementptr inbounds nuw %"class.clang::ActionResult", ptr %7, i32 0, i32 0
  store i64 %59, ptr %60, align 8
  %61 = getelementptr inbounds nuw %"class.clang::ActionResult", ptr %7, i32 0, i32 0
  %62 = load i64, ptr %61, align 8
  ret i64 %62
}