; Function Attrs: mustprogress nounwind uwtable
define dso_local noundef i64 @_ZN5clang8SemaObjC25ParseObjCEncodeExpressionENS_14SourceLocationES1_S1_NS_9OpaquePtrINS_8QualTypeEEES1_(ptr noundef nonnull align 8 dereferenceable(328) %0, i32 %1, i32 %2, i32 %3, ptr %4, i32 %5) local_unnamed_addr #0 align 2 {
  %7 = alloca ptr, align 8
  %8 = tail call noundef nonnull align 8 dereferenceable(23096) ptr @_ZNK5clang8SemaBase13getASTContextEv(ptr noundef nonnull align 8 dereferenceable(8) %0) #18
  %9 = call i64 @_ZN5clang4Sema17GetTypeFromParserENS_9OpaquePtrINS_8QualTypeEEEPPNS_14TypeSourceInfoE(ptr %4, ptr noundef nonnull %7) #18
  %10 = load ptr, ptr %7, align 8
  %.not = icmp eq ptr %10, null
  br i1 %.not, label %11, label %15

11:                                               ; preds = %6
  %12 = load ptr, ptr %0, align 8
  %13 = call i32 @_ZN5clang4Sema19getLocForEndOfTokenENS_14SourceLocationEj(ptr noundef nonnull align 8 dereferenceable(17560) %12, i32 %3, i32 noundef 0) #18
  %14 = call noundef ptr @_ZNK5clang10ASTContext24getTrivialTypeSourceInfoENS_8QualTypeENS_14SourceLocationE(ptr noundef nonnull align 8 dereferenceable(23096) %8, i64 %9, i32 %13) #18
  store ptr %14, ptr %7, align 8
  br label %15

15:                                               ; preds = %11, %6
  %16 = phi ptr [ %14, %11 ], [ %10, %6 ]
  %17 = call i64 @_ZN5clang8SemaObjC25BuildObjCEncodeExpressionENS_14SourceLocationEPNS_14TypeSourceInfoES1_(ptr noundef nonnull align 8 dereferenceable(328) %0, i32 %1, ptr noundef %16, i32 %5)
  ret i64 %17
}